; Function Attrs: nounwind uwtable
define dso_local noundef ptr @list_delete_nth_cell(ptr noundef %0, i32 noundef %1) local_unnamed_addr #0 {
  %3 = getelementptr inbounds nuw i8, ptr %0, i64 4
  %4 = load i32, ptr %3, align 4
  %5 = icmp eq i32 %4, 1
  %6 = getelementptr inbounds nuw i8, ptr %0, i64 16
  %7 = load ptr, ptr %6, align 8
  br i1 %5, label %8, label %11

8:                                                ; preds = %2
  %9 = getelementptr inbounds nuw i8, ptr %0, i64 24
  %.not.i.i = icmp eq ptr %7, %9
  br i1 %.not.i.i, label %list_free.exit, label %10

10:                                               ; preds = %8
  tail call void @pfree(ptr noundef %7) #9
  br label %list_free.exit

list_free.exit:                                   ; preds = %8, %10
  tail call void @pfree(ptr noundef nonnull %0) #9
  br label %23

11:                                               ; preds = %2
  %12 = sext i32 %1 to i64
  %13 = getelementptr inbounds %union.ListCell, ptr %7, i64 %12
  %14 = add i32 %1, 1
  %15 = sext i32 %14 to i64
  %16 = getelementptr inbounds %union.ListCell, ptr %7, i64 %15
  %17 = xor i32 %1, -1
  %18 = add i32 %4, %17
  %19 = sext i32 %18 to i64
  %20 = shl nsw i64 %19, 3
  tail call void @llvm.memmove.p0.p0.i64(ptr align 8 %13, ptr align 8 %16, i64 %20, i1 false)
  %21 = load i32, ptr %3, align 4
  %22 = add i32 %21, -1
  store i32 %22, ptr %3, align 4
  br label %23

23:                                               ; preds = %11, %list_free.exit
  %.0 = phi ptr [ null, %list_free.exit ], [ %0, %11 ]
  ret ptr %.0
}